; Function Attrs: mustprogress nounwind uwtable
define dso_local void @_ZNK4node4quic9QuicError10MemoryInfoEPNS_13MemoryTrackerE(ptr noundef nonnull align 8 dereferenceable(88) %this, ptr nocapture noundef readonly %tracker) unnamed_addr #3 align 2 {
entry:
  %reason_ = getelementptr inbounds i8, ptr %this, i64 8
  %call = tail call noundef i64 @_ZNKSt7__cxx1112basic_stringIcSt11char_traitsIcESaIcEE6lengthEv(ptr noundef nonnull align 8 dereferenceable(32) %reason_) #16
  %_M_finish.i.i.i.i = getelementptr inbounds i8, ptr %tracker, i64 64
  %_M_start.i.i.i.i = getelementptr inbounds i8, ptr %tracker, i64 32
  %0 = load ptr, ptr %_M_finish.i.i.i.i, align 8
  %1 = load ptr, ptr %_M_start.i.i.i.i, align 8
  %cmp.i.i.i.i.i = icmp ne ptr %0, %1
  tail call void @llvm.assume(i1 %cmp.i.i.i.i.i)
  %_M_first3.i.i.i.i.i.i = getelementptr inbounds i8, ptr %tracker, i64 72
  %2 = load ptr, ptr %_M_first3.i.i.i.i.i.i, align 8, !noalias !17
  %cmp.i.i.i1.i.i = icmp eq ptr %0, %2
  br i1 %cmp.i.i.i1.i.i, label %if.then.i.i.i.i.i, label %_ZN4node13MemoryTracker10TrackFieldImbbEEvPKcRKT_S3_.exit

if.then.i.i.i.i.i:                                ; preds = %entry
  %_M_node5.i.i.i.i.i.i = getelementptr inbounds i8, ptr %tracker, i64 88
  %3 = load ptr, ptr %_M_node5.i.i.i.i.i.i, align 8, !noalias !17
  %add.ptr.i.i.i.i.i = getelementptr inbounds i8, ptr %3, i64 -8
  %4 = load ptr, ptr %add.ptr.i.i.i.i.i, align 8
  %add.ptr.i.i.i.i.i.i = getelementptr inbounds i8, ptr %4, i64 512
  br label %_ZN4node13MemoryTracker10TrackFieldImbbEEvPKcRKT_S3_.exit

_ZN4node13MemoryTracker10TrackFieldImbbEEvPKcRKT_S3_.exit: ; preds = %entry, %if.then.i.i.i.i.i
  %5 = phi ptr [ %add.ptr.i.i.i.i.i.i, %if.then.i.i.i.i.i ], [ %0, %entry ]
  %incdec.ptr.i.i.i.i.i = getelementptr inbounds i8, ptr %5, i64 -8
  %6 = load ptr, ptr %incdec.ptr.i.i.i.i.i, align 8
  %size_.i = getelementptr inbounds i8, ptr %6, i64 40
  %7 = load i64, ptr %size_.i, align 8
  %add.i = add i64 %7, 8
  store i64 %add.i, ptr %size_.i, align 8
  ret void
}